; Function Attrs: mustprogress uwtable
define void @_ZN2cv6copyToERKNS_11_InputArrayERKNS_12_OutputArrayES2_(ptr noundef nonnull align 8 dereferenceable(24) %0, ptr noundef nonnull align 8 dereferenceable(24) %1, ptr noundef nonnull align 8 dereferenceable(24) %2) local_unnamed_addr #0 personality ptr @__gxx_personality_v0 {
  %4 = alloca %"class.cv::utils::trace::details::Region", align 8
  call void @_ZN2cv5utils5trace7details6RegionC1ERKNS3_21LocationStaticStorageE(ptr noundef nonnull align 8 dereferenceable(12) %4, ptr noundef nonnull align 8 dereferenceable(32) @_ZZN2cv6copyToERKNS_11_InputArrayERKNS_12_OutputArrayES2_E26__cv_trace_location_fn1022)
  invoke void @_ZNK2cv11_InputArray6copyToERKNS_12_OutputArrayERKS0_(ptr noundef nonnull align 8 dereferenceable(24) %0, ptr noundef nonnull align 8 dereferenceable(24) %1, ptr noundef nonnull align 8 dereferenceable(24) %2)
          to label %5 unwind label %12

5:                                                ; preds = %3
  %6 = getelementptr inbounds i8, ptr %4, i64 8
  %7 = load i32, ptr %6, align 8
  %.not.i = icmp eq i32 %7, 0
  br i1 %.not.i, label %_ZN2cv5utils5trace7details6RegionD2Ev.exit, label %8

8:                                                ; preds = %5
  invoke void @_ZN2cv5utils5trace7details6Region7destroyEv(ptr noundef nonnull align 8 dereferenceable(12) %4)
          to label %_ZN2cv5utils5trace7details6RegionD2Ev.exit unwind label %9

9:                                                ; preds = %8
  %10 = landingpad { ptr, i32 }
          catch ptr null
  %11 = extractvalue { ptr, i32 } %10, 0
  call void @__clang_call_terminate(ptr %11) #17
  unreachable

_ZN2cv5utils5trace7details6RegionD2Ev.exit:       ; preds = %5, %8
  ret void

12:                                               ; preds = %3
  %13 = landingpad { ptr, i32 }
          cleanup
  call void @_ZN2cv5utils5trace7details6RegionD2Ev(ptr noundef nonnull align 8 dereferenceable(12) %4) #18
  resume { ptr, i32 } %13
}